target datalayout = "e-m:e-p270:32:32-p271:32:32-p272:64:64-i64:64-i128:128-f80:128-n8:16:32:64-S128"
target triple = "x86_64-pc-linux-gnu"

%class.LIR_Opr = type { i64 }
%class.Instruction = type { ptr, i32, i32, i32, ptr, ptr, ptr, %class.LIR_Opr, i32, ptr, ptr, ptr, ptr }
%class.ValueType = type { ptr, i32, i32 }
%class.PhiSimplifier = type <{ %class.BlockClosure, i8, [7 x i8] }>
%class.BlockClosure = type { ptr }
%class.Phi = type { %class.Instruction, i32, i32 }

@illegalType = external global ptr, align 8

; Function Attrs: mustprogress nounwind uwtable
define linkonce_odr hidden void @_ZN11Instruction8set_typeEP9ValueType(ptr noundef nonnull align 8 dereferenceable(96) %0, ptr noundef %1) #1 comdat align 2 {
  %3 = alloca ptr, align 8
  %4 = alloca ptr, align 8
  store ptr %0, ptr %3, align 8
  store ptr %1, ptr %4, align 8
  %5 = load ptr, ptr %3, align 8
  %6 = load ptr, ptr %4, align 8
  %7 = getelementptr inbounds %class.Instruction, ptr %5, i32 0, i32 4
  store ptr %6, ptr %7, align 8
  ret void
}

; Function Attrs: mustprogress nounwind uwtable
define linkonce_odr hidden noundef i32 @_ZNK9ValueType3tagEv(ptr noundef nonnull align 8 dereferenceable(16) %0) #1 comdat align 2 {
  %2 = alloca ptr, align 8
  store ptr %0, ptr %2, align 8
  %3 = load ptr, ptr %2, align 8
  %4 = getelementptr inbounds %class.ValueType, ptr %3, i32 0, i32 2
  %5 = load i32, ptr %4, align 4
  ret i32 %5
}

; Function Attrs: mustprogress nounwind uwtable
define linkonce_odr hidden void @_ZN11Instruction9set_substEPS_(ptr noundef nonnull align 8 dereferenceable(96) %0, ptr noundef %1) #1 comdat align 2 {
  %3 = alloca ptr, align 8
  %4 = alloca ptr, align 8
  store ptr %0, ptr %3, align 8
  store ptr %1, ptr %4, align 8
  %5 = load ptr, ptr %3, align 8
  %6 = load ptr, ptr %4, align 8
  %7 = getelementptr inbounds %class.Instruction, ptr %5, i32 0, i32 6
  store ptr %6, ptr %7, align 8
  ret void
}

; Function Attrs: mustprogress nounwind uwtable
define linkonce_odr hidden void @_ZN3Phi5clearENS_4FlagE(ptr noundef nonnull align 8 dereferenceable(104) %0, i32 noundef %1) #1 comdat align 2 {
  %3 = alloca ptr, align 8
  %4 = alloca i32, align 4
  store ptr %0, ptr %3, align 8
  store i32 %1, ptr %4, align 4
  %5 = load ptr, ptr %3, align 8
  %6 = load i32, ptr %4, align 4
  %7 = xor i32 %6, -1
  %8 = getelementptr inbounds %class.Phi, ptr %5, i32 0, i32 1
  %9 = load i32, ptr %8, align 8
  %10 = and i32 %9, %7
  store i32 %10, ptr %8, align 8
  ret void
}

; Function Attrs: mustprogress nounwind uwtable
define linkonce_odr hidden void @_ZN3Phi12make_illegalEv(ptr noundef nonnull align 8 dereferenceable(104) %0) #1 comdat align 2 {
  %2 = alloca ptr, align 8
  store ptr %0, ptr %2, align 8
  %3 = load ptr, ptr %2, align 8
  call void @_ZN3Phi3setENS_4FlagE(ptr noundef nonnull align 8 dereferenceable(104) %3, i32 noundef 2)
  %4 = load ptr, ptr @illegalType, align 8
  call void @_ZN11Instruction8set_typeEP9ValueType(ptr noundef nonnull align 8 dereferenceable(96) %3, ptr noundef %4)
  ret void
}

; Function Attrs: mustprogress nounwind uwtable
define linkonce_odr hidden void @_ZN3Phi3setENS_4FlagE(ptr noundef nonnull align 8 dereferenceable(104) %0, i32 noundef %1) #1 comdat align 2 {
  %3 = alloca ptr, align 8
  %4 = alloca i32, align 4
  store ptr %0, ptr %3, align 8
  store i32 %1, ptr %4, align 4
  %5 = load ptr, ptr %3, align 8
  %6 = load i32, ptr %4, align 4
  %7 = getelementptr inbounds %class.Phi, ptr %5, i32 0, i32 1
  %8 = load i32, ptr %7, align 8
  %9 = or i32 %8, %6
  store i32 %9, ptr %7, align 8
  ret void
}

; Function Attrs: mustprogress nounwind uwtable
define linkonce_odr hidden noundef zeroext i1 @_ZN9ValueType10is_illegalEv(ptr noundef nonnull align 8 dereferenceable(16) %0) #1 comdat align 2 {
  %2 = alloca ptr, align 8
  store ptr %0, ptr %2, align 8
  %3 = load ptr, ptr %2, align 8
  %4 = call noundef i32 @_ZNK9ValueType3tagEv(ptr noundef nonnull align 8 dereferenceable(16) %3)
  %5 = icmp eq i32 %4, 8
  ret i1 %5
}

; Function Attrs: mustprogress nounwind uwtable
define linkonce_odr hidden noundef ptr @_ZNK11Instruction4typeEv(ptr noundef nonnull align 8 dereferenceable(96) %0) #1 comdat align 2 {
  %2 = alloca ptr, align 8
  store ptr %0, ptr %2, align 8
  %3 = load ptr, ptr %2, align 8
  %4 = getelementptr inbounds %class.Instruction, ptr %3, i32 0, i32 4
  %5 = load ptr, ptr %4, align 8
  ret ptr %5
}

; Function Attrs: mustprogress nounwind uwtable
define linkonce_odr hidden noundef zeroext i1 @_ZNK3Phi6is_setENS_4FlagE(ptr noundef nonnull align 8 dereferenceable(104) %0, i32 noundef %1) #1 comdat align 2 {
  %3 = alloca ptr, align 8
  %4 = alloca i32, align 4
  store ptr %0, ptr %3, align 8
  store i32 %1, ptr %4, align 4
  %5 = load ptr, ptr %3, align 8
  %6 = getelementptr inbounds %class.Phi, ptr %5, i32 0, i32 1
  %7 = load i32, ptr %6, align 8
  %8 = load i32, ptr %4, align 4
  %9 = and i32 %7, %8
  %10 = icmp ne i32 %9, 0
  ret i1 %10
}

; Function Attrs: mustprogress nounwind uwtable
define linkonce_odr hidden noundef ptr @_ZN11Instruction5substEv(ptr noundef nonnull align 8 dereferenceable(96) %0) #1 comdat align 2 {
  %2 = alloca ptr, align 8
  store ptr %0, ptr %2, align 8
  %3 = load ptr, ptr %2, align 8
  %4 = getelementptr inbounds %class.Instruction, ptr %3, i32 0, i32 6
  %5 = load ptr, ptr %4, align 8
  %6 = icmp eq ptr %5, null
  br i1 %6, label %7, label %8

7:                                                ; preds = %1
  br label %12

8:                                                ; preds = %1
  %9 = getelementptr inbounds %class.Instruction, ptr %3, i32 0, i32 6
  %10 = load ptr, ptr %9, align 8
  %11 = call noundef ptr @_ZN11Instruction5substEv(ptr noundef nonnull align 8 dereferenceable(96) %10)
  br label %12

12:                                               ; preds = %8, %7
  %13 = phi ptr [ %3, %7 ], [ %11, %8 ]
  ret ptr %13
}

; Function Attrs: mustprogress nounwind uwtable
define linkonce_odr hidden noundef zeroext i1 @_ZNK11Instruction9has_substEv(ptr noundef nonnull align 8 dereferenceable(96) %0) #1 comdat align 2 {
  %2 = alloca ptr, align 8
  store ptr %0, ptr %2, align 8
  %3 = load ptr, ptr %2, align 8
  %4 = getelementptr inbounds %class.Instruction, ptr %3, i32 0, i32 6
  %5 = load ptr, ptr %4, align 8
  %6 = icmp ne ptr %5, null
  ret i1 %6
}

; Function Attrs: mustprogress nounwind uwtable
define hidden noundef ptr @_ZN13PhiSimplifier8simplifyEP11Instruction(ptr noundef nonnull align 8 dereferenceable(9) %0, ptr noundef %1) #1 align 2 {
  %3 = alloca ptr, align 8
  %4 = alloca ptr, align 8
  %5 = alloca ptr, align 8
  %6 = alloca ptr, align 8
  %7 = alloca ptr, align 8
  %8 = alloca i32, align 4
  %9 = alloca i32, align 4
  %10 = alloca ptr, align 8
  %11 = alloca ptr, align 8
  store ptr %0, ptr %4, align 8
  store ptr %1, ptr %5, align 8
  %12 = load ptr, ptr %4, align 8
  %13 = load ptr, ptr %5, align 8
  %14 = load ptr, ptr %13, align 8
  %15 = getelementptr inbounds ptr, ptr %14, i64 2
  %16 = load ptr, ptr %15, align 8
  %17 = call noundef ptr %16(ptr noundef nonnull align 8 dereferenceable(96) %13)
  store ptr %17, ptr %6, align 8
  %18 = load ptr, ptr %6, align 8
  %19 = icmp eq ptr %18, null
  br i1 %19, label %20, label %22

20:                                               ; preds = %2
  %21 = load ptr, ptr %5, align 8
  store ptr %21, ptr %3, align 8
  br label %94

22:                                               ; preds = %2
  %23 = load ptr, ptr %5, align 8
  %24 = call noundef zeroext i1 @_ZNK11Instruction9has_substEv(ptr noundef nonnull align 8 dereferenceable(96) %23)
  br i1 %24, label %25, label %29

25:                                               ; preds = %22
  %26 = load ptr, ptr %5, align 8
  %27 = call noundef ptr @_ZN11Instruction5substEv(ptr noundef nonnull align 8 dereferenceable(96) %26)
  %28 = call noundef ptr @_ZN13PhiSimplifier8simplifyEP11Instruction(ptr noundef nonnull align 8 dereferenceable(9) %12, ptr noundef %27)
  store ptr %28, ptr %3, align 8
  br label %94

29:                                               ; preds = %22
  %30 = load ptr, ptr %6, align 8
  %31 = call noundef zeroext i1 @_ZNK3Phi6is_setENS_4FlagE(ptr noundef nonnull align 8 dereferenceable(104) %30, i32 noundef 2)
  br i1 %31, label %32, label %34

32:                                               ; preds = %29
  %33 = load ptr, ptr %6, align 8
  store ptr %33, ptr %3, align 8
  br label %94

34:                                               ; preds = %29
  %35 = load ptr, ptr %6, align 8
  %36 = call noundef zeroext i1 @_ZNK3Phi6is_setENS_4FlagE(ptr noundef nonnull align 8 dereferenceable(104) %35, i32 noundef 1)
  br i1 %36, label %37, label %39

37:                                               ; preds = %34
  %38 = load ptr, ptr %6, align 8
  store ptr %38, ptr %3, align 8
  br label %94

39:                                               ; preds = %34
  %40 = load ptr, ptr %6, align 8
  %41 = call noundef ptr @_ZNK11Instruction4typeEv(ptr noundef nonnull align 8 dereferenceable(96) %40)
  %42 = call noundef zeroext i1 @_ZN9ValueType10is_illegalEv(ptr noundef nonnull align 8 dereferenceable(16) %41)
  br i1 %42, label %43, label %45

43:                                               ; preds = %39
  %44 = load ptr, ptr %6, align 8
  store ptr %44, ptr %3, align 8
  br label %94

45:                                               ; preds = %39
  %46 = load ptr, ptr %6, align 8
  call void @_ZN3Phi3setENS_4FlagE(ptr noundef nonnull align 8 dereferenceable(104) %46, i32 noundef 1)
  store ptr null, ptr %7, align 8
  %47 = load ptr, ptr %6, align 8
  %48 = call noundef i32 @_ZNK3Phi13operand_countEv(ptr noundef nonnull align 8 dereferenceable(104) %47)
  store i32 %48, ptr %8, align 4
  store i32 0, ptr %9, align 4
  br label %49

49:                                               ; preds = %85, %45
  %50 = load i32, ptr %9, align 4
  %51 = load i32, ptr %8, align 4
  %52 = icmp slt i32 %50, %51
  br i1 %52, label %53, label %88

53:                                               ; preds = %49
  %54 = load ptr, ptr %6, align 8
  %55 = load i32, ptr %9, align 4
  %56 = call noundef ptr @_ZNK3Phi10operand_atEi(ptr noundef nonnull align 8 dereferenceable(104) %54, i32 noundef %55)
  store ptr %56, ptr %10, align 8
  %57 = load ptr, ptr %10, align 8
  %58 = call noundef ptr @_ZNK11Instruction4typeEv(ptr noundef nonnull align 8 dereferenceable(96) %57)
  %59 = call noundef zeroext i1 @_ZN9ValueType10is_illegalEv(ptr noundef nonnull align 8 dereferenceable(16) %58)
  br i1 %59, label %60, label %64

60:                                               ; preds = %53
  %61 = load ptr, ptr %6, align 8
  call void @_ZN3Phi12make_illegalEv(ptr noundef nonnull align 8 dereferenceable(104) %61)
  %62 = load ptr, ptr %6, align 8
  call void @_ZN3Phi5clearENS_4FlagE(ptr noundef nonnull align 8 dereferenceable(104) %62, i32 noundef 1)
  %63 = load ptr, ptr %6, align 8
  store ptr %63, ptr %3, align 8
  br label %94

64:                                               ; preds = %53
  %65 = load ptr, ptr %10, align 8
  %66 = call noundef ptr @_ZN13PhiSimplifier8simplifyEP11Instruction(ptr noundef nonnull align 8 dereferenceable(9) %12, ptr noundef %65)
  store ptr %66, ptr %11, align 8
  %67 = load ptr, ptr %11, align 8
  %68 = load ptr, ptr %6, align 8
  %69 = icmp ne ptr %67, %68
  br i1 %69, label %70, label %84

70:                                               ; preds = %64
  %71 = load ptr, ptr %11, align 8
  %72 = load ptr, ptr %7, align 8
  %73 = icmp ne ptr %71, %72
  br i1 %73, label %74, label %84

74:                                               ; preds = %70
  %75 = load ptr, ptr %7, align 8
  %76 = icmp eq ptr %75, null
  br i1 %76, label %77, label %79

77:                                               ; preds = %74
  %78 = load ptr, ptr %11, align 8
  store ptr %78, ptr %7, align 8
  br label %83

79:                                               ; preds = %74
  %80 = load ptr, ptr %6, align 8
  call void @_ZN3Phi3setENS_4FlagE(ptr noundef nonnull align 8 dereferenceable(104) %80, i32 noundef 2)
  %81 = load ptr, ptr %6, align 8
  call void @_ZN3Phi5clearENS_4FlagE(ptr noundef nonnull align 8 dereferenceable(104) %81, i32 noundef 1)
  %82 = load ptr, ptr %6, align 8
  store ptr %82, ptr %3, align 8
  br label %94

83:                                               ; preds = %77
  br label %84

84:                                               ; preds = %83, %70, %64
  br label %85

85:                                               ; preds = %84
  %86 = load i32, ptr %9, align 4
  %87 = add nsw i32 %86, 1
  store i32 %87, ptr %9, align 4
  br label %49, !llvm.loop !26

88:                                               ; preds = %49
  %89 = getelementptr inbounds %class.PhiSimplifier, ptr %12, i32 0, i32 1
  store i8 1, ptr %89, align 8
  %90 = load ptr, ptr %6, align 8
  call void @_ZN3Phi5clearENS_4FlagE(ptr noundef nonnull align 8 dereferenceable(104) %90, i32 noundef 1)
  %91 = load ptr, ptr %6, align 8
  %92 = load ptr, ptr %7, align 8
  call void @_ZN11Instruction9set_substEPS_(ptr noundef nonnull align 8 dereferenceable(96) %91, ptr noundef %92)
  %93 = load ptr, ptr %7, align 8
  store ptr %93, ptr %3, align 8
  br label %94

94:                                               ; preds = %88, %79, %60, %43, %37, %32, %25, %20
  %95 = load ptr, ptr %3, align 8
  ret ptr %95
}