; Function Attrs: mustprogress nounwind uwtable
define hidden noundef ptr @_ZN13PhiSimplifier8simplifyEP11Instruction(ptr nocapture noundef nonnull writeonly align 8 dereferenceable(9) %0, ptr noundef %1) local_unnamed_addr #0 align 2 {
  %3 = load ptr, ptr %1, align 8
  %4 = getelementptr inbounds i8, ptr %3, i64 16
  %5 = load ptr, ptr %4, align 8
  %6 = tail call noundef ptr %5(ptr noundef nonnull align 8 dereferenceable(96) %1) #19
  %7 = icmp eq ptr %6, null
  br i1 %7, label %.loopexit, label %.lr.ph.preheader

.lr.ph.preheader:                                 ; preds = %2
  %8 = getelementptr inbounds i8, ptr %1, i64 40
  %9 = load ptr, ptr %8, align 8
  %.not4458 = icmp eq ptr %9, null
  br i1 %.not4458, label %.lr.ph._crit_edge, label %tailrecurse.i.outer

tailrecurse.i.outer:                              ; preds = %tailrecurse.i, %.lr.ph.preheader
  %.tr.i.ph = phi ptr [ %1, %.lr.ph.preheader ], [ %18, %tailrecurse.i ]
  %10 = getelementptr inbounds i8, ptr %.tr.i.ph, i64 40
  %11 = getelementptr inbounds i8, ptr %.tr.i.ph, i64 40
  br label %tailrecurse.i

tailrecurse.loopexit:                             ; preds = %tailrecurse.i
  %12 = load ptr, ptr %.tr.i.ph, align 8
  %13 = getelementptr inbounds i8, ptr %12, i64 16
  %14 = load ptr, ptr %13, align 8
  %15 = tail call noundef ptr %14(ptr noundef nonnull align 8 dereferenceable(96) %.tr.i.ph) #19
  %16 = icmp eq ptr %15, null
  br i1 %16, label %.loopexit, label %.lr.ph

.lr.ph:                                           ; preds = %tailrecurse.loopexit
  %17 = load ptr, ptr %11, align 8
  %.not44 = icmp eq ptr %17, null
  br i1 %.not44, label %.lr.ph._crit_edge, label %tailrecurse.i

tailrecurse.i:                                    ; preds = %tailrecurse.i.outer, %.lr.ph
  %18 = load ptr, ptr %10, align 8
  %19 = icmp eq ptr %18, null
  br i1 %19, label %tailrecurse.loopexit, label %tailrecurse.i.outer

.lr.ph._crit_edge:                                ; preds = %.lr.ph, %.lr.ph.preheader
  %.lcssa = phi ptr [ %6, %.lr.ph.preheader ], [ %15, %.lr.ph ]
  %20 = getelementptr inbounds i8, ptr %.lcssa, i64 96
  %21 = load i32, ptr %20, align 8
  %22 = and i32 %21, 3
  %or.cond43.not = icmp eq i32 %22, 0
  br i1 %or.cond43.not, label %23, label %.loopexit

23:                                               ; preds = %.lr.ph._crit_edge
  %24 = getelementptr inbounds i8, ptr %.lcssa, i64 24
  %25 = load ptr, ptr %24, align 8
  %26 = getelementptr inbounds i8, ptr %25, i64 12
  %27 = load i32, ptr %26, align 4
  %28 = icmp eq i32 %27, 8
  br i1 %28, label %.loopexit, label %29

29:                                               ; preds = %23
  %30 = or disjoint i32 %21, 1
  store i32 %30, ptr %20, align 8
  %31 = tail call noundef i32 @_ZNK3Phi13operand_countEv(ptr noundef nonnull align 8 dereferenceable(104) %.lcssa) #19
  %32 = icmp sgt i32 %31, 0
  br i1 %32, label %.lr.ph53, label %._crit_edge

.lr.ph53:                                         ; preds = %29, %52
  %.03752 = phi ptr [ %.1, %52 ], [ null, %29 ]
  %.03851 = phi i32 [ %53, %52 ], [ 0, %29 ]
  %33 = tail call noundef ptr @_ZNK3Phi10operand_atEi(ptr noundef nonnull align 8 dereferenceable(104) %.lcssa, i32 noundef %.03851) #19
  %34 = getelementptr inbounds i8, ptr %33, i64 24
  %35 = load ptr, ptr %34, align 8
  %36 = getelementptr inbounds i8, ptr %35, i64 12
  %37 = load i32, ptr %36, align 4
  %38 = icmp eq i32 %37, 8
  br i1 %38, label %39, label %44

39:                                               ; preds = %.lr.ph53
  %40 = load i32, ptr %20, align 8
  %41 = load ptr, ptr @illegalType, align 8
  store ptr %41, ptr %24, align 8
  %42 = and i32 %40, -4
  %43 = or disjoint i32 %42, 2
  store i32 %43, ptr %20, align 8
  br label %.loopexit

44:                                               ; preds = %.lr.ph53
  %45 = tail call noundef ptr @_ZN13PhiSimplifier8simplifyEP11Instruction(ptr noundef nonnull align 8 dereferenceable(9) %0, ptr noundef nonnull %33)
  %.not = icmp eq ptr %45, %.lcssa
  %.not41 = icmp eq ptr %45, %.03752
  %or.cond = select i1 %.not, i1 true, i1 %.not41
  br i1 %or.cond, label %52, label %46

46:                                               ; preds = %44
  %47 = icmp eq ptr %.03752, null
  br i1 %47, label %52, label %48

48:                                               ; preds = %46
  %49 = load i32, ptr %20, align 8
  %50 = and i32 %49, -4
  %51 = or disjoint i32 %50, 2
  store i32 %51, ptr %20, align 8
  br label %.loopexit

52:                                               ; preds = %46, %44
  %.1 = phi ptr [ %.03752, %44 ], [ %45, %46 ]
  %53 = add nuw nsw i32 %.03851, 1
  %exitcond.not = icmp eq i32 %53, %31
  br i1 %exitcond.not, label %._crit_edge, label %.lr.ph53, !llvm.loop !36

._crit_edge:                                      ; preds = %52, %29
  %.037.lcssa = phi ptr [ null, %29 ], [ %.1, %52 ]
  %54 = getelementptr inbounds i8, ptr %0, i64 8
  store i8 1, ptr %54, align 8
  %55 = load i32, ptr %20, align 8
  %56 = and i32 %55, -2
  store i32 %56, ptr %20, align 8
  %57 = getelementptr inbounds i8, ptr %.lcssa, i64 40
  store ptr %.037.lcssa, ptr %57, align 8
  br label %.loopexit

.loopexit:                                        ; preds = %tailrecurse.loopexit, %2, %23, %.lr.ph._crit_edge, %._crit_edge, %48, %39
  %.0 = phi ptr [ %.lcssa, %39 ], [ %.lcssa, %48 ], [ %.037.lcssa, %._crit_edge ], [ %.lcssa, %.lr.ph._crit_edge ], [ %.lcssa, %23 ], [ %1, %2 ], [ %.tr.i.ph, %tailrecurse.loopexit ]
  ret ptr %.0
}